; ModuleID = 'bench/php/original/engine_user.ll'
source_filename = "bench/php/original/engine_user.ll"
target datalayout = "e-m:e-p270:32:32-p271:32:32-p272:64:64-i64:64-i128:128-f80:128-n8:16:32:64-S128"
target triple = "x86_64-pc-linux-gnu"

%struct._php_random_algo = type { i64, ptr, ptr, ptr, ptr }
%struct._zend_executor_globals = type { %struct._zval_struct, %struct._zval_struct, [32 x ptr], ptr, ptr, %struct._zend_array, %struct._zend_array, ptr, i32, i32, ptr, ptr, ptr, ptr, ptr, ptr, i64, ptr, ptr, i32, i32, i64, i32, i32, i32, i8, i8, %struct.zend_atomic_bool_s, %struct.zend_atomic_bool_s, ptr, i64, ptr, ptr, %struct._zend_array, %struct._zend_array, i32, i8, %struct._zval_struct, %struct._zval_struct, %struct._zend_stack, %struct._zend_stack, %struct._zend_stack, ptr, i32, i32, i64, ptr, ptr, ptr, %struct._zend_objects_store, ptr, ptr, ptr, [3 x %struct._zend_op], ptr, i8, i8, i64, i32, i32, ptr, [16 x %struct._HashTableIterator], ptr, %union._zend_function, %struct._zend_op, %struct._zend_array, i64, %struct.zend_get_gc_buffer, ptr, ptr, ptr, i64, i8, i32, ptr, ptr, i64, %struct._zend_call_stack, i64, i64, [6 x ptr] }
%struct.zend_atomic_bool_s = type { i8 }
%struct._zval_struct = type { %union._zend_value, %union.anon, %union.anon.2 }
%union._zend_value = type { i64 }
%union.anon = type { i32 }
%union.anon.2 = type { i32 }
%struct._zend_stack = type { i32, i32, i32, ptr }
%struct._zend_objects_store = type { ptr, i32, i32, i32 }
%struct._HashTableIterator = type { ptr, i32, i32 }
%union._zend_function = type { %struct._zend_op_array }
%struct._zend_op_array = type { i8, [3 x i8], i32, ptr, ptr, ptr, i32, i32, ptr, ptr, ptr, ptr, i32, i32, i32, i32, ptr, ptr, ptr, ptr, ptr, i32, i32, ptr, ptr, ptr, i32, i32, i32, i32, ptr, ptr, [6 x ptr] }
%struct._zend_op = type { ptr, %union._znode_op, %union._znode_op, %union._znode_op, i32, i32, i8, i8, i8, i8 }
%union._znode_op = type { i32 }
%struct._zend_array = type { %struct._zend_refcounted_h, %union.anon.4, i32, %union.anon.6, i32, i32, i32, i32, i64, ptr }
%struct._zend_refcounted_h = type { i32, %union.anon.3 }
%union.anon.3 = type { i32 }
%union.anon.4 = type { i32 }
%union.anon.6 = type { ptr }
%struct.zend_get_gc_buffer = type { ptr, ptr, ptr }
%struct._zend_call_stack = type { ptr, i64 }

@php_random_algo_user = constant %struct._php_random_algo { i64 16, ptr @generate, ptr @range, ptr null, ptr null }, align 8
@executor_globals = external local_unnamed_addr global %struct._zend_executor_globals, align 8
@random_ce_Random_BrokenRandomEngineError = external local_unnamed_addr global ptr, align 8
@.str = private unnamed_addr constant [47 x i8] c"A random engine must return a non-empty string\00", align 1

; Function Attrs: nounwind uwtable
define internal { i64, i64 } @generate(ptr nocapture noundef readonly %0) #0 {
  %2 = alloca %struct._zval_struct, align 8
  %3 = getelementptr inbounds i8, ptr %0, i64 8
  %4 = load ptr, ptr %3, align 8
  %5 = load ptr, ptr %0, align 8
  %6 = getelementptr inbounds i8, ptr %5, i64 16
  %7 = load ptr, ptr %6, align 8
  call void @zend_call_known_function(ptr noundef %4, ptr noundef %5, ptr noundef %7, ptr noundef nonnull %2, i32 noundef 0, ptr noundef null, ptr noundef null) #3
  %8 = load ptr, ptr getelementptr inbounds (%struct._zend_executor_globals, ptr @executor_globals, i64 0, i32 50), align 8
  %.not = icmp eq ptr %8, null
  br i1 %.not, label %9, label %25

9:                                                ; preds = %1
  %10 = load ptr, ptr %2, align 8
  %11 = getelementptr inbounds i8, ptr %10, i64 16
  %12 = load i64, ptr %11, align 8
  %spec.store.select = call i64 @llvm.umin.i64(i64 %12, i64 8)
  %.not22 = icmp eq i64 %12, 0
  br i1 %.not22, label %22, label %.preheader

.preheader:                                       ; preds = %9
  %13 = getelementptr inbounds i8, ptr %10, i64 24
  br label %14

14:                                               ; preds = %.preheader, %14
  %.024 = phi i64 [ 0, %.preheader ], [ %21, %14 ]
  %.02123 = phi i64 [ 0, %.preheader ], [ %20, %14 ]
  %15 = getelementptr inbounds [1 x i8], ptr %13, i64 0, i64 %.024
  %16 = load i8, ptr %15, align 1
  %17 = zext i8 %16 to i64
  %18 = shl i64 %.024, 3
  %19 = shl i64 %17, %18
  %20 = add i64 %19, %.02123
  %21 = add nuw nsw i64 %.024, 1
  %exitcond.not = icmp eq i64 %21, %spec.store.select
  br i1 %exitcond.not, label %24, label %14

22:                                               ; preds = %9
  %23 = load ptr, ptr @random_ce_Random_BrokenRandomEngineError, align 8
  call void (ptr, ptr, ...) @zend_throw_error(ptr noundef %23, ptr noundef nonnull @.str) #3
  br label %25

24:                                               ; preds = %14
  call void @zval_ptr_dtor(ptr noundef nonnull %2) #3
  br label %25

25:                                               ; preds = %1, %24, %22
  %.sroa.0.0 = phi i64 [ %20, %24 ], [ 0, %22 ], [ 0, %1 ]
  %.sroa.4.0 = phi i64 [ %spec.store.select, %24 ], [ 8, %22 ], [ 8, %1 ]
  %.fca.0.insert = insertvalue { i64, i64 } poison, i64 %.sroa.0.0, 0
  %.fca.1.insert = insertvalue { i64, i64 } %.fca.0.insert, i64 %.sroa.4.0, 1
  ret { i64, i64 } %.fca.1.insert
}

; Function Attrs: nounwind uwtable
define internal i64 @range(ptr noundef %0, i64 noundef %1, i64 noundef %2) #0 {
  %4 = tail call i64 @php_random_range(ptr nonnull @php_random_algo_user, ptr %0, i64 noundef %1, i64 noundef %2) #3
  ret i64 %4
}

declare void @zend_throw_error(ptr noundef, ptr noundef, ...) local_unnamed_addr #1

declare void @zval_ptr_dtor(ptr noundef) local_unnamed_addr #1

declare void @zend_call_known_function(ptr noundef, ptr noundef, ptr noundef, ptr noundef, i32 noundef, ptr noundef, ptr noundef) local_unnamed_addr #1

declare i64 @php_random_range(ptr, ptr, i64 noundef, i64 noundef) local_unnamed_addr #1

; Function Attrs: nocallback nofree nosync nounwind speculatable willreturn memory(none)
declare i64 @llvm.umin.i64(i64, i64) #2


!llvm.module.flags = !{!0, !1, !2, !3}

!0 = !{i32 1, !"wchar_size", i32 4}
!1 = !{i32 8, !"PIC Level", i32 2}
!2 = !{i32 7, !"uwtable", i32 2}
!3 = !{i32 7, !"frame-pointer", i32 2}
